target datalayout = "e-m:e-p270:32:32-p271:32:32-p272:64:64-i64:64-i128:128-f80:128-n8:16:32:64-S128"
target triple = "x86_64-pc-linux-gnu"

%struct.jit_State = type { %struct.GCtrace, ptr, ptr, ptr, ptr, ptr, ptr, i32, i32, i32, i8, i8, %struct.IRType1, i8, %struct.FoldState, ptr, i32, i32, i32, i32, i32, i32, i32, [1 x i32], [5 x %union.TValue], [3 x %union.TValue], ptr, i32, i32, i32, i32, ptr, ptr, i32, i32, i8, ptr, i32, i32, i16, [101 x i16], [258 x i32], [15 x i32], [16 x ptr], [64 x %struct.HotPenalty], i32, [16 x %struct.BPropEntry], i32, %struct.ScEvEntry, ptr, i32, i32, i32, ptr, i32, i32, ptr, ptr, ptr, i64, i64, %union.TValue, ptr, i32, i32 }
%struct.GCtrace = type { %struct.GCRef, i8, i8, i16, i32, i32, %struct.GCRef, ptr, i32, i32, ptr, ptr, %struct.GCRef, %struct.MRef, i32, i32, ptr, i32, i16, i16, i16, i16, i16, i16, i16, i8, i8, i8, i8 }
%struct.GCRef = type { i64 }
%struct.MRef = type { i64 }
%struct.IRType1 = type { i8 }
%struct.FoldState = type { %union.IRIns, [2 x %union.IRIns], [2 x %union.IRIns] }
%union.IRIns = type { %struct.GCRef }
%struct.HotPenalty = type { %struct.MRef, i16, i16 }
%struct.BPropEntry = type { i16, i16, i32 }
%struct.ScEvEntry = type { %struct.MRef, i16, i16, i16, i16, %struct.IRType1, i8 }
%union.TValue = type { i64 }
%struct.lua_State = type { %struct.GCRef, i8, i8, i8, i8, %struct.MRef, %struct.GCRef, ptr, ptr, %struct.MRef, %struct.MRef, %struct.GCRef, %struct.GCRef, ptr, i32 }
%struct.GCfuncL = type { %struct.GCRef, i8, i8, i8, i8, %struct.GCRef, %struct.GCRef, %struct.MRef, [1 x %struct.GCRef] }
%struct.GCproto = type { %struct.GCRef, i8, i8, i8, i8, i32, i32, %struct.GCRef, %struct.MRef, %struct.MRef, i32, i32, i32, i8, i8, i16, %struct.GCRef, i32, i32, %struct.MRef, %struct.MRef, %struct.MRef }
%struct.GG_State = type { %struct.lua_State, %struct.global_State, %struct.jit_State, [64 x i16], [243 x ptr], [57 x i32] }
%struct.global_State = type { ptr, ptr, %struct.GCState, %struct.GCstr, i8, i8, i8, i8, %struct.StrInternState, i32, %struct.GCRef, %struct.SBuf, %union.TValue, %union.TValue, %struct.Node, %union.TValue, %struct.GCupval, i32, i32, ptr, ptr, ptr, i32, i32, %struct.GCRef, %struct.MRef, %struct.MRef, %struct.PRNGState, [39 x %struct.GCRef] }
%struct.GCState = type { i64, i64, i8, i8, i8, i8, i32, %struct.GCRef, %struct.MRef, %struct.GCRef, %struct.GCRef, %struct.GCRef, %struct.GCRef, i64, i64, i32, i32, %struct.MRef }
%struct.GCstr = type { %struct.GCRef, i8, i8, i8, i8, i32, i32, i32 }
%struct.StrInternState = type { ptr, i32, i32, i32, i8, i8, i8, i8, i64 }
%struct.SBuf = type { ptr, ptr, ptr, %struct.MRef }
%struct.Node = type { %union.TValue, %union.TValue, %struct.MRef }
%struct.GCupval = type { %struct.GCRef, i8, i8, i8, i8, %union.anon, %struct.MRef, i32 }
%union.anon = type { %struct.anon.3 }
%struct.anon.3 = type { %struct.GCRef, %struct.GCRef }
%struct.PRNGState = type { [4 x i64] }

; Function Attrs: nounwind uwtable
define internal void @check_call_unroll(ptr noundef %0, i32 noundef %1) #0 {
  %3 = alloca ptr, align 8
  %4 = alloca i32, align 4
  %5 = alloca ptr, align 8
  %6 = alloca ptr, align 8
  %7 = alloca i32, align 4
  %8 = alloca i32, align 4
  store ptr %0, ptr %3, align 8, !tbaa !4
  store i32 %1, ptr %4, align 4, !tbaa !9
  call void @llvm.lifetime.start.p0(i64 8, ptr %5) #9
  %9 = load ptr, ptr %3, align 8, !tbaa !4
  %10 = getelementptr inbounds nuw %struct.jit_State, ptr %9, i32 0, i32 2
  %11 = load ptr, ptr %10, align 8, !tbaa !51
  %12 = getelementptr inbounds nuw %struct.lua_State, ptr %11, i32 0, i32 7
  %13 = load ptr, ptr %12, align 8, !tbaa !52
  %14 = getelementptr inbounds %union.TValue, ptr %13, i64 -1
  store ptr %14, ptr %5, align 8, !tbaa !11
  call void @llvm.lifetime.start.p0(i64 8, ptr %6) #9
  %15 = load ptr, ptr %5, align 8, !tbaa !11
  %16 = getelementptr inbounds %union.TValue, ptr %15, i64 -1
  %17 = getelementptr inbounds nuw %struct.GCRef, ptr %16, i32 0, i32 0
  %18 = load i64, ptr %17, align 8, !tbaa !15
  %19 = and i64 %18, 140737488355327
  %20 = inttoptr i64 %19 to ptr
  %21 = getelementptr inbounds nuw %struct.GCfuncL, ptr %20, i32 0, i32 7
  %22 = getelementptr inbounds nuw %struct.MRef, ptr %21, i32 0, i32 0
  %23 = load i64, ptr %22, align 8, !tbaa !15
  %24 = inttoptr i64 %23 to ptr
  store ptr %24, ptr %6, align 8, !tbaa !77
  call void @llvm.lifetime.start.p0(i64 4, ptr %7) #9
  %25 = load ptr, ptr %3, align 8, !tbaa !4
  %26 = getelementptr inbounds nuw %struct.jit_State, ptr %25, i32 0, i32 21
  %27 = load i32, ptr %26, align 4, !tbaa !37
  store i32 %27, ptr %7, align 4, !tbaa !9
  call void @llvm.lifetime.start.p0(i64 4, ptr %8) #9
  store i32 0, ptr %8, align 4, !tbaa !9
  %28 = load ptr, ptr %3, align 8, !tbaa !4
  %29 = getelementptr inbounds nuw %struct.jit_State, ptr %28, i32 0, i32 5
  %30 = load ptr, ptr %29, align 8, !tbaa !65
  %31 = getelementptr inbounds nuw %struct.GCproto, ptr %30, i32 0, i32 14
  %32 = load i8, ptr %31, align 1, !tbaa !72
  %33 = zext i8 %32 to i32
  %34 = and i32 %33, 2
  %35 = icmp ne i32 %34, 0
  br i1 %35, label %36, label %39

36:                                               ; preds = %2
  %37 = load i32, ptr %7, align 4, !tbaa !9
  %38 = add nsw i32 %37, -1
  store i32 %38, ptr %7, align 4, !tbaa !9
  br label %39

39:                                               ; preds = %36, %2
  br label %40

40:                                               ; preds = %94, %39
  %41 = load i32, ptr %7, align 4, !tbaa !9
  %42 = icmp sgt i32 %41, 0
  br i1 %42, label %43, label %97

43:                                               ; preds = %40
  %44 = load ptr, ptr %5, align 8, !tbaa !11
  %45 = load i64, ptr %44, align 8, !tbaa !15
  %46 = and i64 %45, 7
  %47 = icmp eq i64 %46, 2
  br i1 %47, label %48, label %51

48:                                               ; preds = %43
  %49 = load i32, ptr %7, align 4, !tbaa !9
  %50 = add nsw i32 %49, -1
  store i32 %50, ptr %7, align 4, !tbaa !9
  br label %51

51:                                               ; preds = %48, %43
  %52 = load ptr, ptr %5, align 8, !tbaa !11
  %53 = load i64, ptr %52, align 8, !tbaa !15
  %54 = and i64 %53, 3
  %55 = icmp eq i64 %54, 0
  br i1 %55, label %56, label %69

56:                                               ; preds = %51
  %57 = load ptr, ptr %5, align 8, !tbaa !11
  %58 = load ptr, ptr %5, align 8, !tbaa !11
  %59 = load i64, ptr %58, align 8, !tbaa !15
  %60 = inttoptr i64 %59 to ptr
  %61 = getelementptr inbounds i32, ptr %60, i64 -1
  %62 = load i32, ptr %61, align 4, !tbaa !9
  %63 = lshr i32 %62, 8
  %64 = and i32 %63, 255
  %65 = add i32 2, %64
  %66 = zext i32 %65 to i64
  %67 = sub i64 0, %66
  %68 = getelementptr inbounds %union.TValue, ptr %57, i64 %67
  br label %76

69:                                               ; preds = %51
  %70 = load ptr, ptr %5, align 8, !tbaa !11
  %71 = load ptr, ptr %5, align 8, !tbaa !11
  %72 = load i64, ptr %71, align 8, !tbaa !15
  %73 = and i64 %72, -8
  %74 = sub i64 0, %73
  %75 = getelementptr inbounds i8, ptr %70, i64 %74
  br label %76

76:                                               ; preds = %69, %56
  %77 = phi ptr [ %68, %56 ], [ %75, %69 ]
  store ptr %77, ptr %5, align 8, !tbaa !11
  %78 = load ptr, ptr %5, align 8, !tbaa !11
  %79 = getelementptr inbounds %union.TValue, ptr %78, i64 -1
  %80 = getelementptr inbounds nuw %struct.GCRef, ptr %79, i32 0, i32 0
  %81 = load i64, ptr %80, align 8, !tbaa !15
  %82 = and i64 %81, 140737488355327
  %83 = inttoptr i64 %82 to ptr
  %84 = getelementptr inbounds nuw %struct.GCfuncL, ptr %83, i32 0, i32 7
  %85 = getelementptr inbounds nuw %struct.MRef, ptr %84, i32 0, i32 0
  %86 = load i64, ptr %85, align 8, !tbaa !15
  %87 = inttoptr i64 %86 to ptr
  %88 = load ptr, ptr %6, align 8, !tbaa !77
  %89 = icmp eq ptr %87, %88
  br i1 %89, label %90, label %93

90:                                               ; preds = %76
  %91 = load i32, ptr %8, align 4, !tbaa !9
  %92 = add nsw i32 %91, 1
  store i32 %92, ptr %8, align 4, !tbaa !9
  br label %93

93:                                               ; preds = %90, %76
  br label %94

94:                                               ; preds = %93
  %95 = load i32, ptr %7, align 4, !tbaa !9
  %96 = add nsw i32 %95, -1
  store i32 %96, ptr %7, align 4, !tbaa !9
  br label %40, !llvm.loop !229

97:                                               ; preds = %40
  %98 = load ptr, ptr %3, align 8, !tbaa !4
  %99 = getelementptr inbounds nuw %struct.jit_State, ptr %98, i32 0, i32 3
  %100 = load ptr, ptr %99, align 8, !tbaa !66
  %101 = load ptr, ptr %3, align 8, !tbaa !4
  %102 = getelementptr inbounds nuw %struct.jit_State, ptr %101, i32 0, i32 49
  %103 = load ptr, ptr %102, align 8, !tbaa !80
  %104 = icmp eq ptr %100, %103
  br i1 %104, label %105, label %145

105:                                              ; preds = %97
  %106 = load i32, ptr %8, align 4, !tbaa !9
  %107 = load ptr, ptr %3, align 8, !tbaa !4
  %108 = getelementptr inbounds nuw %struct.jit_State, ptr %107, i32 0, i32 20
  %109 = load i32, ptr %108, align 8, !tbaa !61
  %110 = add nsw i32 %106, %109
  %111 = load ptr, ptr %3, align 8, !tbaa !4
  %112 = getelementptr inbounds nuw %struct.jit_State, ptr %111, i32 0, i32 42
  %113 = getelementptr inbounds [15 x i32], ptr %112, i64 0, i64 12
  %114 = load i32, ptr %113, align 4, !tbaa !9
  %115 = icmp sgt i32 %110, %114
  br i1 %115, label %116, label %144

116:                                              ; preds = %105
  %117 = load ptr, ptr %3, align 8, !tbaa !4
  %118 = getelementptr inbounds nuw %struct.jit_State, ptr %117, i32 0, i32 3
  %119 = load ptr, ptr %118, align 8, !tbaa !66
  %120 = getelementptr inbounds nuw i32, ptr %119, i32 1
  store ptr %120, ptr %118, align 8, !tbaa !66
  %121 = load ptr, ptr %3, align 8, !tbaa !4
  %122 = getelementptr inbounds nuw %struct.jit_State, ptr %121, i32 0, i32 21
  %123 = load i32, ptr %122, align 4, !tbaa !37
  %124 = load ptr, ptr %3, align 8, !tbaa !4
  %125 = getelementptr inbounds nuw %struct.jit_State, ptr %124, i32 0, i32 22
  %126 = load i32, ptr %125, align 8, !tbaa !38
  %127 = add nsw i32 %123, %126
  %128 = icmp eq i32 %127, 0
  br i1 %128, label %129, label %136

129:                                              ; preds = %116
  %130 = load ptr, ptr %3, align 8, !tbaa !4
  %131 = load ptr, ptr %3, align 8, !tbaa !4
  %132 = getelementptr inbounds nuw %struct.jit_State, ptr %131, i32 0, i32 0
  %133 = getelementptr inbounds nuw %struct.GCtrace, ptr %132, i32 0, i32 20
  %134 = load i16, ptr %133, align 8, !tbaa !36
  %135 = zext i16 %134 to i32
  call void @lj_record_stop(ptr noundef %130, i32 noundef 3, i32 noundef %135)
  br label %143

136:                                              ; preds = %116
  %137 = load ptr, ptr %3, align 8, !tbaa !4
  %138 = load ptr, ptr %3, align 8, !tbaa !4
  %139 = getelementptr inbounds nuw %struct.jit_State, ptr %138, i32 0, i32 0
  %140 = getelementptr inbounds nuw %struct.GCtrace, ptr %139, i32 0, i32 20
  %141 = load i16, ptr %140, align 8, !tbaa !36
  %142 = zext i16 %141 to i32
  call void @lj_record_stop(ptr noundef %137, i32 noundef 4, i32 noundef %142)
  br label %143

143:                                              ; preds = %136, %129
  br label %144

144:                                              ; preds = %143, %105
  br label %181

145:                                              ; preds = %97
  %146 = load i32, ptr %8, align 4, !tbaa !9
  %147 = load ptr, ptr %3, align 8, !tbaa !4
  %148 = getelementptr inbounds nuw %struct.jit_State, ptr %147, i32 0, i32 42
  %149 = getelementptr inbounds [15 x i32], ptr %148, i64 0, i64 11
  %150 = load i32, ptr %149, align 4, !tbaa !9
  %151 = icmp sgt i32 %146, %150
  br i1 %151, label %152, label %180

152:                                              ; preds = %145
  %153 = load i32, ptr %4, align 4, !tbaa !9
  %154 = icmp ne i32 %153, 0
  br i1 %154, label %155, label %178

155:                                              ; preds = %152
  %156 = load ptr, ptr %3, align 8, !tbaa !4
  %157 = load i32, ptr %4, align 4, !tbaa !9
  call void @lj_trace_flush(ptr noundef %156, i32 noundef %157)
  %158 = load ptr, ptr %3, align 8, !tbaa !4
  %159 = getelementptr inbounds i8, ptr %158, i64 -832
  %160 = getelementptr inbounds nuw %struct.GG_State, ptr %159, i32 0, i32 1
  %161 = getelementptr inbounds nuw %struct.global_State, ptr %160, i32 0, i32 27
  %162 = call i64 @lj_prng_u64(ptr noundef %161)
  %163 = and i64 %162, 15
  %164 = trunc i64 %163 to i16
  %165 = load ptr, ptr %3, align 8, !tbaa !4
  %166 = getelementptr inbounds i8, ptr %165, i64 -832
  %167 = getelementptr inbounds nuw %struct.GG_State, ptr %166, i32 0, i32 3
  %168 = load ptr, ptr %3, align 8, !tbaa !4
  %169 = getelementptr inbounds nuw %struct.jit_State, ptr %168, i32 0, i32 3
  %170 = load ptr, ptr %169, align 8, !tbaa !66
  %171 = getelementptr inbounds i32, ptr %170, i64 1
  %172 = ptrtoint ptr %171 to i64
  %173 = trunc i64 %172 to i32
  %174 = lshr i32 %173, 2
  %175 = and i32 %174, 63
  %176 = zext i32 %175 to i64
  %177 = getelementptr inbounds nuw [64 x i16], ptr %167, i64 0, i64 %176
  store i16 %164, ptr %177, align 2, !tbaa !13
  br label %178

178:                                              ; preds = %155, %152
  %179 = load ptr, ptr %3, align 8, !tbaa !4
  call void @lj_trace_err(ptr noundef %179, i32 noundef 13) #10
  unreachable

180:                                              ; preds = %145
  br label %181

181:                                              ; preds = %180, %144
  call void @llvm.lifetime.end.p0(i64 4, ptr %8) #9
  call void @llvm.lifetime.end.p0(i64 4, ptr %7) #9
  call void @llvm.lifetime.end.p0(i64 8, ptr %6) #9
  call void @llvm.lifetime.end.p0(i64 8, ptr %5) #9
  ret void
}