; Function Attrs: nounwind uwtable
define internal fastcc void @check_call_unroll(ptr noundef %0, i32 noundef %1) unnamed_addr #0 {
  %3 = getelementptr inbounds nuw i8, ptr %0, i64 128
  %4 = load ptr, ptr %3, align 8, !tbaa !44
  %5 = getelementptr inbounds nuw i8, ptr %4, i64 32
  %6 = load ptr, ptr %5, align 8, !tbaa !45
  %7 = getelementptr inbounds i8, ptr %6, i64 -16
  %8 = load i64, ptr %7, align 8, !tbaa !4
  %9 = and i64 %8, 140737488355327
  %10 = inttoptr i64 %9 to ptr
  %11 = getelementptr inbounds nuw i8, ptr %10, i64 32
  %12 = load i64, ptr %11, align 8, !tbaa !4
  %13 = getelementptr inbounds nuw i8, ptr %0, i64 252
  %14 = load i32, ptr %13, align 4, !tbaa !31
  %15 = getelementptr inbounds nuw i8, ptr %0, i64 152
  %16 = load ptr, ptr %15, align 8, !tbaa !60
  %17 = getelementptr inbounds nuw i8, ptr %16, i64 61
  %18 = load i8, ptr %17, align 1, !tbaa !54
  %19 = shl i8 %18, 6
  %sext = ashr i8 %19, 7
  %20 = sext i8 %sext to i32
  %spec.select = add nsw i32 %14, %20
  %21 = icmp sgt i32 %spec.select, 0
  br i1 %21, label %.lr.ph.preheader, label %._crit_edge

.lr.ph.preheader:                                 ; preds = %2
  %22 = getelementptr inbounds i8, ptr %6, i64 -8
  br label %.lr.ph

.lr.ph:                                           ; preds = %.lr.ph.preheader, %43
  %.047 = phi i32 [ %spec.select44, %43 ], [ 0, %.lr.ph.preheader ]
  %.13846 = phi i32 [ %53, %43 ], [ %spec.select, %.lr.ph.preheader ]
  %.03945 = phi ptr [ %44, %43 ], [ %22, %.lr.ph.preheader ]
  %23 = load i64, ptr %.03945, align 8, !tbaa !4
  %24 = and i64 %23, 7
  %25 = icmp eq i64 %24, 2
  %26 = sext i1 %25 to i32
  %27 = and i64 %23, 3
  %28 = icmp eq i64 %27, 0
  br i1 %28, label %29, label %39

29:                                               ; preds = %.lr.ph
  %30 = inttoptr i64 %23 to ptr
  %31 = getelementptr inbounds i8, ptr %30, i64 -4
  %32 = load i32, ptr %31, align 4, !tbaa !37
  %33 = lshr i32 %32, 8
  %34 = and i32 %33, 255
  %35 = add nuw nsw i32 %34, 2
  %36 = zext nneg i32 %35 to i64
  %37 = sub nsw i64 0, %36
  %38 = getelementptr inbounds %union.TValue, ptr %.03945, i64 %37
  br label %43

39:                                               ; preds = %.lr.ph
  %40 = and i64 %23, -8
  %41 = sub i64 0, %40
  %42 = getelementptr inbounds i8, ptr %.03945, i64 %41
  br label %43

43:                                               ; preds = %39, %29
  %44 = phi ptr [ %38, %29 ], [ %42, %39 ]
  %45 = getelementptr inbounds i8, ptr %44, i64 -8
  %46 = load i64, ptr %45, align 8, !tbaa !4
  %47 = and i64 %46, 140737488355327
  %48 = inttoptr i64 %47 to ptr
  %49 = getelementptr inbounds nuw i8, ptr %48, i64 32
  %50 = load i64, ptr %49, align 8, !tbaa !4
  %51 = icmp eq i64 %50, %12
  %52 = zext i1 %51 to i32
  %spec.select44 = add nuw nsw i32 %.047, %52
  %spec.select43 = add nsw i32 %.13846, -1
  %53 = add nsw i32 %spec.select43, %26
  %54 = icmp sgt i32 %53, 0
  br i1 %54, label %.lr.ph, label %._crit_edge, !llvm.loop !191

._crit_edge:                                      ; preds = %43, %2
  %.0.lcssa = phi i32 [ 0, %2 ], [ %spec.select44, %43 ]
  %55 = getelementptr inbounds nuw i8, ptr %0, i64 136
  %56 = load ptr, ptr %55, align 8, !tbaa !61
  %57 = getelementptr inbounds nuw i8, ptr %0, i64 3008
  %58 = load ptr, ptr %57, align 8, !tbaa !77
  %59 = icmp eq ptr %56, %58
  br i1 %59, label %60, label %75

60:                                               ; preds = %._crit_edge
  %61 = getelementptr inbounds nuw i8, ptr %0, i64 248
  %62 = load i32, ptr %61, align 8, !tbaa !56
  %63 = add nsw i32 %62, %.0.lcssa
  %64 = getelementptr inbounds nuw i8, ptr %0, i64 1684
  %65 = load i32, ptr %64, align 4, !tbaa !37
  %66 = icmp sgt i32 %63, %65
  br i1 %66, label %.sink.split, label %93

.sink.split:                                      ; preds = %60
  %67 = getelementptr inbounds nuw i8, ptr %56, i64 4
  store ptr %67, ptr %55, align 8, !tbaa !61
  %68 = getelementptr inbounds nuw i8, ptr %0, i64 256
  %69 = load i32, ptr %68, align 8, !tbaa !32
  %70 = sub i32 0, %69
  %71 = icmp eq i32 %14, %70
  %72 = getelementptr inbounds nuw i8, ptr %0, i64 104
  %73 = load i16, ptr %72, align 8, !tbaa !30
  %74 = zext i16 %73 to i32
  %. = select i1 %71, i32 3, i32 4
  tail call void @lj_record_stop(ptr noundef nonnull %0, i32 noundef %., i32 noundef %74)
  br label %93

75:                                               ; preds = %._crit_edge
  %76 = getelementptr inbounds nuw i8, ptr %0, i64 1680
  %77 = load i32, ptr %76, align 4, !tbaa !37
  %78 = icmp sgt i32 %.0.lcssa, %77
  br i1 %78, label %79, label %93

79:                                               ; preds = %75
  %.not42 = icmp eq i32 %1, 0
  br i1 %.not42, label %92, label %80

80:                                               ; preds = %79
  tail call void @lj_trace_flush(ptr noundef nonnull %0, i32 noundef %1) #8
  %81 = getelementptr inbounds i8, ptr %0, i64 -344
  %82 = tail call i64 @lj_prng_u64(ptr noundef nonnull %81) #8
  %83 = trunc i64 %82 to i16
  %84 = and i16 %83, 15
  %85 = getelementptr inbounds nuw i8, ptr %0, i64 3112
  %86 = load ptr, ptr %55, align 8, !tbaa !61
  %87 = getelementptr inbounds nuw i8, ptr %86, i64 4
  %88 = ptrtoint ptr %87 to i64
  %89 = lshr i64 %88, 2
  %90 = and i64 %89, 63
  %91 = getelementptr inbounds nuw [64 x i16], ptr %85, i64 0, i64 %90
  store i16 %84, ptr %91, align 2, !tbaa !113
  br label %92

92:                                               ; preds = %80, %79
  tail call void @lj_trace_err(ptr noundef nonnull %0, i32 noundef 13) #9
  unreachable

93:                                               ; preds = %.sink.split, %75, %60
  ret void
}